target datalayout = "e-m:e-p270:32:32-p271:32:32-p272:64:64-i64:64-i128:128-f80:128-n8:16:32:64-S128"
target triple = "x86_64-pc-linux-gnu"

; Function Attrs: mustprogress nounwind uwtable
define linkonce_odr noundef float @_ZSt4sqrtf(float noundef %0) #1 comdat {
  %2 = alloca float, align 4
  store float %0, ptr %2, align 4
  %3 = load float, ptr %2, align 4
  %4 = call float @sqrtf(float noundef %3) #8
  ret float %4
}

; Function Attrs: mustprogress nounwind uwtable
define linkonce_odr noundef float @_ZN3gmx6squareIfEET_S1_(float noundef %0) #1 comdat {
  %2 = alloca float, align 4
  store float %0, ptr %2, align 4
  %3 = load float, ptr %2, align 4
  %4 = load float, ptr %2, align 4
  %5 = fmul float %3, %4
  ret float %5
}

; Function Attrs: mustprogress uwtable
define noundef float @_Z16calc_similar_indbiPKiPKfPA3_fS4_(i1 noundef zeroext %0, i32 noundef %1, ptr noundef %2, ptr noundef %3, ptr noundef %4, ptr noundef %5) #0 {
  %7 = alloca float, align 4
  %8 = alloca i8, align 1
  %9 = alloca i32, align 4
  %10 = alloca ptr, align 8
  %11 = alloca ptr, align 8
  %12 = alloca ptr, align 8
  %13 = alloca ptr, align 8
  %14 = alloca i32, align 4
  %15 = alloca i32, align 4
  %16 = alloca i32, align 4
  %17 = alloca float, align 4
  %18 = alloca float, align 4
  %19 = alloca float, align 4
  %20 = alloca float, align 4
  %21 = alloca float, align 4
  %22 = alloca float, align 4
  %23 = zext i1 %0 to i8
  store i8 %23, ptr %8, align 1
  store i32 %1, ptr %9, align 4
  store ptr %2, ptr %10, align 8
  store ptr %3, ptr %11, align 8
  store ptr %4, ptr %12, align 8
  store ptr %5, ptr %13, align 8
  store float 0.000000e+00, ptr %18, align 4
  store float 0.000000e+00, ptr %21, align 4
  store float 0.000000e+00, ptr %22, align 4
  store i32 0, ptr %15, align 4
  br label %24

24:                                               ; preds = %104, %6
  %25 = load i32, ptr %15, align 4
  %26 = load i32, ptr %9, align 4
  %27 = icmp slt i32 %25, %26
  br i1 %27, label %28, label %107

28:                                               ; preds = %24
  %29 = load ptr, ptr %10, align 8
  %30 = icmp ne ptr %29, null
  br i1 %30, label %31, label %37

31:                                               ; preds = %28
  %32 = load ptr, ptr %10, align 8
  %33 = load i32, ptr %15, align 4
  %34 = sext i32 %33 to i64
  %35 = getelementptr inbounds i32, ptr %32, i64 %34
  %36 = load i32, ptr %35, align 4
  store i32 %36, ptr %14, align 4
  br label %39

37:                                               ; preds = %28
  %38 = load i32, ptr %15, align 4
  store i32 %38, ptr %14, align 4
  br label %39

39:                                               ; preds = %37, %31
  %40 = load ptr, ptr %11, align 8
  %41 = load i32, ptr %14, align 4
  %42 = sext i32 %41 to i64
  %43 = getelementptr inbounds float, ptr %40, i64 %42
  %44 = load float, ptr %43, align 4
  store float %44, ptr %17, align 4
  %45 = load float, ptr %17, align 4
  %46 = load float, ptr %18, align 4
  %47 = fadd float %46, %45
  store float %47, ptr %18, align 4
  store i32 0, ptr %16, align 4
  br label %48

48:                                               ; preds = %100, %39
  %49 = load i32, ptr %16, align 4
  %50 = icmp slt i32 %49, 3
  br i1 %50, label %51, label %103

51:                                               ; preds = %48
  %52 = load ptr, ptr %12, align 8
  %53 = load i32, ptr %14, align 4
  %54 = sext i32 %53 to i64
  %55 = getelementptr inbounds [3 x float], ptr %52, i64 %54
  %56 = load i32, ptr %16, align 4
  %57 = sext i32 %56 to i64
  %58 = getelementptr inbounds [3 x float], ptr %55, i64 0, i64 %57
  %59 = load float, ptr %58, align 4
  %60 = load ptr, ptr %13, align 8
  %61 = load i32, ptr %14, align 4
  %62 = sext i32 %61 to i64
  %63 = getelementptr inbounds [3 x float], ptr %60, i64 %62
  %64 = load i32, ptr %16, align 4
  %65 = sext i32 %64 to i64
  %66 = getelementptr inbounds [3 x float], ptr %63, i64 0, i64 %65
  %67 = load float, ptr %66, align 4
  %68 = fsub float %59, %67
  store float %68, ptr %20, align 4
  %69 = load float, ptr %17, align 4
  %70 = load float, ptr %20, align 4
  %71 = call noundef float @_ZN3gmx6squareIfEET_S1_(float noundef %70)
  %72 = load float, ptr %22, align 4
  %73 = call float @llvm.fmuladd.f32(float %69, float %71, float %72)
  store float %73, ptr %22, align 4
  %74 = load i8, ptr %8, align 1
  %75 = trunc i8 %74 to i1
  br i1 %75, label %76, label %99

76:                                               ; preds = %51
  %77 = load ptr, ptr %12, align 8
  %78 = load i32, ptr %14, align 4
  %79 = sext i32 %78 to i64
  %80 = getelementptr inbounds [3 x float], ptr %77, i64 %79
  %81 = load i32, ptr %16, align 4
  %82 = sext i32 %81 to i64
  %83 = getelementptr inbounds [3 x float], ptr %80, i64 0, i64 %82
  %84 = load float, ptr %83, align 4
  %85 = load ptr, ptr %13, align 8
  %86 = load i32, ptr %14, align 4
  %87 = sext i32 %86 to i64
  %88 = getelementptr inbounds [3 x float], ptr %85, i64 %87
  %89 = load i32, ptr %16, align 4
  %90 = sext i32 %89 to i64
  %91 = getelementptr inbounds [3 x float], ptr %88, i64 0, i64 %90
  %92 = load float, ptr %91, align 4
  %93 = fadd float %84, %92
  store float %93, ptr %19, align 4
  %94 = load float, ptr %17, align 4
  %95 = load float, ptr %19, align 4
  %96 = call noundef float @_ZN3gmx6squareIfEET_S1_(float noundef %95)
  %97 = load float, ptr %21, align 4
  %98 = call float @llvm.fmuladd.f32(float %94, float %96, float %97)
  store float %98, ptr %21, align 4
  br label %99

99:                                               ; preds = %76, %51
  br label %100

100:                                              ; preds = %99
  %101 = load i32, ptr %16, align 4
  %102 = add nsw i32 %101, 1
  store i32 %102, ptr %16, align 4
  br label %48, !llvm.loop !5

103:                                              ; preds = %48
  br label %104

104:                                              ; preds = %103
  %105 = load i32, ptr %15, align 4
  %106 = add nsw i32 %105, 1
  store i32 %106, ptr %15, align 4
  br label %24, !llvm.loop !7

107:                                              ; preds = %24
  %108 = load i8, ptr %8, align 1
  %109 = trunc i8 %108 to i1
  br i1 %109, label %110, label %116

110:                                              ; preds = %107
  %111 = load float, ptr %22, align 4
  %112 = load float, ptr %21, align 4
  %113 = fdiv float %111, %112
  %114 = call noundef float @_ZSt4sqrtf(float noundef %113)
  %115 = fmul float 2.000000e+00, %114
  store float %115, ptr %7, align 4
  br label %121

116:                                              ; preds = %107
  %117 = load float, ptr %22, align 4
  %118 = load float, ptr %18, align 4
  %119 = fdiv float %117, %118
  %120 = call noundef float @_ZSt4sqrtf(float noundef %119)
  store float %120, ptr %7, align 4
  br label %121

121:                                              ; preds = %116, %110
  %122 = load float, ptr %7, align 4
  ret float %122
}

; Function Attrs: mustprogress uwtable
define noundef float @_Z10rmsdev_indiPiPfPA3_fS2_(i32 noundef %0, ptr noundef %1, ptr noundef %2, ptr noundef %3, ptr noundef %4) #0 {
  %6 = alloca i32, align 4
  %7 = alloca ptr, align 8
  %8 = alloca ptr, align 8
  %9 = alloca ptr, align 8
  %10 = alloca ptr, align 8
  store i32 %0, ptr %6, align 4
  store ptr %1, ptr %7, align 8
  store ptr %2, ptr %8, align 8
  store ptr %3, ptr %9, align 8
  store ptr %4, ptr %10, align 8
  %11 = load i32, ptr %6, align 4
  %12 = load ptr, ptr %7, align 8
  %13 = load ptr, ptr %8, align 8
  %14 = load ptr, ptr %9, align 8
  %15 = load ptr, ptr %10, align 8
  %16 = call noundef float @_Z16calc_similar_indbiPKiPKfPA3_fS4_(i1 noundef zeroext false, i32 noundef %11, ptr noundef %12, ptr noundef %13, ptr noundef %14, ptr noundef %15)
  ret float %16
}