; Function Attrs: mustprogress nofree nounwind memory(write, argmem: readwrite) uwtable
define noundef float @_Z10rmsdev_indiPiPfPA3_fS2_(i32 noundef %0, ptr noundef readonly %1, ptr nocapture noundef readonly %2, ptr nocapture noundef readonly %3, ptr nocapture noundef readonly %4) local_unnamed_addr #0 {
  %6 = icmp sgt i32 %0, 0
  br i1 %6, label %.lr.ph.i, label %_Z16calc_similar_indbiPKiPKfPA3_fS4_.exit

.lr.ph.i:                                         ; preds = %5
  %.not.i = icmp eq ptr %1, null
  %wide.trip.count114.i = zext nneg i32 %0 to i64
  br i1 %.not.i, label %.split.us.i, label %.split.i

.split.us.i:                                      ; preds = %.lr.ph.i, %.split49.us.i
  %indvars.iv93.i = phi i64 [ %indvars.iv.next94.i, %.split49.us.i ], [ 0, %.lr.ph.i ]
  %.054.us60.i = phi float [ %17, %.split49.us.i ], [ 0.000000e+00, %.lr.ph.i ]
  %.04152.us61.i = phi float [ %9, %.split49.us.i ], [ 0.000000e+00, %.lr.ph.i ]
  %7 = getelementptr inbounds float, ptr %2, i64 %indvars.iv93.i
  %8 = load float, ptr %7, align 4
  br label %10

.split49.us.i:                                    ; preds = %10
  %9 = fadd float %.04152.us61.i, %8
  %indvars.iv.next94.i = add nuw nsw i64 %indvars.iv93.i, 1
  %exitcond97.not.i = icmp eq i64 %indvars.iv.next94.i, %wide.trip.count114.i
  br i1 %exitcond97.not.i, label %_Z16calc_similar_indbiPKiPKfPA3_fS4_.exit, label %.split.us.i, !llvm.loop !7

10:                                               ; preds = %10, %.split.us.i
  %indvars.iv89.i = phi i64 [ %indvars.iv.next90.i, %10 ], [ 0, %.split.us.i ]
  %.147.us.i = phi float [ %17, %10 ], [ %.054.us60.i, %.split.us.i ]
  %11 = getelementptr inbounds [3 x float], ptr %3, i64 %indvars.iv93.i, i64 %indvars.iv89.i
  %12 = load float, ptr %11, align 4
  %13 = getelementptr inbounds [3 x float], ptr %4, i64 %indvars.iv93.i, i64 %indvars.iv89.i
  %14 = load float, ptr %13, align 4
  %15 = fsub float %12, %14
  %16 = fmul float %15, %15
  %17 = tail call float @llvm.fmuladd.f32(float %8, float %16, float %.147.us.i)
  %indvars.iv.next90.i = add nuw nsw i64 %indvars.iv89.i, 1
  %exitcond92.not.i = icmp eq i64 %indvars.iv.next90.i, 3
  br i1 %exitcond92.not.i, label %.split49.us.i, label %10, !llvm.loop !5

.split.i:                                         ; preds = %.lr.ph.i, %.split49.i
  %indvars.iv85.i = phi i64 [ %indvars.iv.next86.i, %.split49.i ], [ 0, %.lr.ph.i ]
  %.054.i = phi float [ %30, %.split49.i ], [ 0.000000e+00, %.lr.ph.i ]
  %.04152.i = phi float [ %31, %.split49.i ], [ 0.000000e+00, %.lr.ph.i ]
  %18 = getelementptr inbounds i32, ptr %1, i64 %indvars.iv85.i
  %19 = load i32, ptr %18, align 4
  %20 = sext i32 %19 to i64
  %21 = getelementptr inbounds float, ptr %2, i64 %20
  %22 = load float, ptr %21, align 4
  br label %23

23:                                               ; preds = %23, %.split.i
  %indvars.iv.i = phi i64 [ 0, %.split.i ], [ %indvars.iv.next.i, %23 ]
  %.147.i = phi float [ %.054.i, %.split.i ], [ %30, %23 ]
  %24 = getelementptr inbounds [3 x float], ptr %3, i64 %20, i64 %indvars.iv.i
  %25 = load float, ptr %24, align 4
  %26 = getelementptr inbounds [3 x float], ptr %4, i64 %20, i64 %indvars.iv.i
  %27 = load float, ptr %26, align 4
  %28 = fsub float %25, %27
  %29 = fmul float %28, %28
  %30 = tail call float @llvm.fmuladd.f32(float %22, float %29, float %.147.i)
  %indvars.iv.next.i = add nuw nsw i64 %indvars.iv.i, 1
  %exitcond.not.i = icmp eq i64 %indvars.iv.next.i, 3
  br i1 %exitcond.not.i, label %.split49.i, label %23, !llvm.loop !5

.split49.i:                                       ; preds = %23
  %31 = fadd float %.04152.i, %22
  %indvars.iv.next86.i = add nuw nsw i64 %indvars.iv85.i, 1
  %exitcond88.not.i = icmp eq i64 %indvars.iv.next86.i, %wide.trip.count114.i
  br i1 %exitcond88.not.i, label %_Z16calc_similar_indbiPKiPKfPA3_fS4_.exit, label %.split.i, !llvm.loop !7

_Z16calc_similar_indbiPKiPKfPA3_fS4_.exit:        ; preds = %.split49.i, %.split49.us.i, %5
  %.041.lcssa.i = phi float [ 0.000000e+00, %5 ], [ %9, %.split49.us.i ], [ %31, %.split49.i ]
  %.0.lcssa.i = phi float [ 0.000000e+00, %5 ], [ %17, %.split49.us.i ], [ %30, %.split49.i ]
  %32 = fdiv float %.0.lcssa.i, %.041.lcssa.i
  %33 = tail call noundef float @sqrtf(float noundef %32) #15
  ret float %33
}